target datalayout = "e-m:e-p270:32:32-p271:32:32-p272:64:64-i64:64-i128:128-f80:128-n8:16:32:64-S128"
target triple = "x86_64-pc-linux-gnu"

@ReservedPLKeywords_hash_func.h = internal constant [49 x i8] c"\7F\07\7F\7F\FE\7F\0D\7F\7F\05\00\17\00\02\7F\00\11\00\7F\13\05\7F\06\02\FD\11\00\06\7F\08\12\7F\FA\03\FB\00\7F\00\00\0B\0F\7F\7F\7F\0D\7F\00\11\7F", align 16

; Function Attrs: nounwind uwtable
define internal i32 @ReservedPLKeywords_hash_func(ptr noundef %0, i64 noundef %1) #0 {
  %3 = alloca ptr, align 8
  %4 = alloca i64, align 8
  %5 = alloca ptr, align 8
  %6 = alloca i32, align 4
  %7 = alloca i32, align 4
  %8 = alloca i8, align 1
  store ptr %0, ptr %3, align 8
  store i64 %1, ptr %4, align 8
  call void @llvm.lifetime.start.p0(i64 8, ptr %5) #8
  %9 = load ptr, ptr %3, align 8
  store ptr %9, ptr %5, align 8
  call void @llvm.lifetime.start.p0(i64 4, ptr %6) #8
  store i32 0, ptr %6, align 4
  call void @llvm.lifetime.start.p0(i64 4, ptr %7) #8
  store i32 1, ptr %7, align 4
  br label %10

10:                                               ; preds = %14, %2
  %11 = load i64, ptr %4, align 8
  %12 = add i64 %11, -1
  store i64 %12, ptr %4, align 8
  %13 = icmp ne i64 %11, 0
  br i1 %13, label %14, label %31

14:                                               ; preds = %10
  call void @llvm.lifetime.start.p0(i64 1, ptr %8) #8
  %15 = load ptr, ptr %5, align 8
  %16 = getelementptr inbounds nuw i8, ptr %15, i32 1
  store ptr %16, ptr %5, align 8
  %17 = load i8, ptr %15, align 1
  %18 = zext i8 %17 to i32
  %19 = or i32 %18, 32
  %20 = trunc i32 %19 to i8
  store i8 %20, ptr %8, align 1
  %21 = load i32, ptr %6, align 4
  %22 = mul i32 %21, 257
  %23 = load i8, ptr %8, align 1
  %24 = zext i8 %23 to i32
  %25 = add i32 %22, %24
  store i32 %25, ptr %6, align 4
  %26 = load i32, ptr %7, align 4
  %27 = mul i32 %26, 8191
  %28 = load i8, ptr %8, align 1
  %29 = zext i8 %28 to i32
  %30 = add i32 %27, %29
  store i32 %30, ptr %7, align 4
  call void @llvm.lifetime.end.p0(i64 1, ptr %8) #8
  br label %10, !llvm.loop !9

31:                                               ; preds = %10
  %32 = load i32, ptr %6, align 4
  %33 = urem i32 %32, 49
  %34 = zext i32 %33 to i64
  %35 = getelementptr inbounds nuw [49 x i8], ptr @ReservedPLKeywords_hash_func.h, i64 0, i64 %34
  %36 = load i8, ptr %35, align 1
  %37 = sext i8 %36 to i32
  %38 = load i32, ptr %7, align 4
  %39 = urem i32 %38, 49
  %40 = zext i32 %39 to i64
  %41 = getelementptr inbounds nuw [49 x i8], ptr @ReservedPLKeywords_hash_func.h, i64 0, i64 %40
  %42 = load i8, ptr %41, align 1
  %43 = sext i8 %42 to i32
  %44 = add i32 %37, %43
  call void @llvm.lifetime.end.p0(i64 4, ptr %7) #8
  call void @llvm.lifetime.end.p0(i64 4, ptr %6) #8
  call void @llvm.lifetime.end.p0(i64 8, ptr %5) #8
  ret i32 %44
}